target datalayout = "e-m:e-p270:32:32-p271:32:32-p272:64:64-i64:64-i128:128-f80:128-n8:16:32:64-S128"
target triple = "x86_64-pc-linux-gnu"

%struct.st_callout_name_key = type { ptr, i32, ptr, ptr }

; Function Attrs: nounwind uwtable
define dso_local i32 @onig_st_lookup_callout_name_table(ptr noundef %0, ptr noundef %1, i32 noundef %2, ptr noundef %3, ptr noundef %4, ptr noundef %5) #0 {
  %7 = alloca ptr, align 8
  %8 = alloca ptr, align 8
  %9 = alloca i32, align 4
  %10 = alloca ptr, align 8
  %11 = alloca ptr, align 8
  %12 = alloca ptr, align 8
  %13 = alloca %struct.st_callout_name_key, align 8
  store ptr %0, ptr %7, align 8, !tbaa !9
  store ptr %1, ptr %8, align 8, !tbaa !32
  store i32 %2, ptr %9, align 4, !tbaa !10
  store ptr %3, ptr %10, align 8, !tbaa !4
  store ptr %4, ptr %11, align 8, !tbaa !4
  store ptr %5, ptr %12, align 8, !tbaa !22
  call void @llvm.lifetime.start.p0(i64 32, ptr %13) #8
  %14 = load ptr, ptr %8, align 8, !tbaa !32
  %15 = getelementptr inbounds nuw %struct.st_callout_name_key, ptr %13, i32 0, i32 0
  store ptr %14, ptr %15, align 8, !tbaa !24
  %16 = load i32, ptr %9, align 4, !tbaa !10
  %17 = getelementptr inbounds nuw %struct.st_callout_name_key, ptr %13, i32 0, i32 1
  store i32 %16, ptr %17, align 8, !tbaa !27
  %18 = load ptr, ptr %10, align 8, !tbaa !4
  %19 = getelementptr inbounds nuw %struct.st_callout_name_key, ptr %13, i32 0, i32 2
  store ptr %18, ptr %19, align 8, !tbaa !29
  %20 = load ptr, ptr %11, align 8, !tbaa !4
  %21 = getelementptr inbounds nuw %struct.st_callout_name_key, ptr %13, i32 0, i32 3
  store ptr %20, ptr %21, align 8, !tbaa !28
  %22 = load ptr, ptr %7, align 8, !tbaa !9
  %23 = ptrtoint ptr %13 to i64
  %24 = load ptr, ptr %12, align 8, !tbaa !22
  %25 = call i32 @onig_st_lookup(ptr noundef %22, i64 noundef %23, ptr noundef %24)
  call void @llvm.lifetime.end.p0(i64 32, ptr %13) #8
  ret i32 %25
}