; Function Attrs: nounwind uwtable
define dso_local i32 @onig_st_lookup_callout_name_table(ptr noundef %0, ptr noundef %1, i32 noundef %2, ptr noundef %3, ptr noundef %4, ptr noundef %5) local_unnamed_addr #2 {
  %7 = alloca %struct.st_callout_name_key, align 8
  call void @llvm.lifetime.start.p0(i64 32, ptr nonnull %7) #24
  store ptr %1, ptr %7, align 8, !tbaa !19
  %8 = getelementptr inbounds nuw i8, ptr %7, i64 8
  store i32 %2, ptr %8, align 8, !tbaa !22
  %9 = getelementptr inbounds nuw i8, ptr %7, i64 16
  store ptr %3, ptr %9, align 8, !tbaa !24
  %10 = getelementptr inbounds nuw i8, ptr %7, i64 24
  store ptr %4, ptr %10, align 8, !tbaa !23
  %11 = ptrtoint ptr %7 to i64
  %12 = call i32 @onig_st_lookup(ptr noundef %0, i64 noundef %11, ptr noundef %5) #24
  call void @llvm.lifetime.end.p0(i64 32, ptr nonnull %7) #24
  ret i32 %12
}